; ModuleID = 'source-C-CXX/0/400.cpp'
source_filename = "source-C-CXX/0/400.cpp"
target datalayout = "e-m:e-p270:32:32-p271:32:32-p272:64:64-i64:64-f80:128-n8:16:32:64-S128"
target triple = "x86_64-pc-linux-gnu"

%"class.std::ios_base::Init" = type { i8 }
%"class.std::basic_istream" = type { i32 (...)**, i64, %"class.std::basic_ios" }
%"class.std::basic_ios" = type { %"class.std::ios_base", %"class.std::basic_ostream"*, i8, i8, %"class.std::basic_streambuf"*, %"class.std::ctype"*, %"class.std::num_put"*, %"class.std::num_get"* }
%"class.std::ios_base" = type { i32 (...)**, i64, i64, i32, i32, i32, %"struct.std::ios_base::_Callback_list"*, %"struct.std::ios_base::_Words", [8 x %"struct.std::ios_base::_Words"], i32, %"struct.std::ios_base::_Words"*, %"class.std::locale" }
%"struct.std::ios_base::_Callback_list" = type { %"struct.std::ios_base::_Callback_list"*, void (i32, %"class.std::ios_base"*, i32)*, i32, i32 }
%"struct.std::ios_base::_Words" = type { i8*, i64 }
%"class.std::locale" = type { %"class.std::locale::_Impl"* }
%"class.std::locale::_Impl" = type { i32, %"class.std::locale::facet"**, i64, %"class.std::locale::facet"**, i8** }
%"class.std::locale::facet" = type <{ i32 (...)**, i32, [4 x i8] }>
%"class.std::basic_ostream" = type { i32 (...)**, %"class.std::basic_ios" }
%"class.std::basic_streambuf" = type { i32 (...)**, i8*, i8*, i8*, i8*, i8*, i8*, %"class.std::locale" }
%"class.std::ctype" = type <{ %"class.std::locale::facet.base", [4 x i8], %struct.__locale_struct*, i8, [7 x i8], i32*, i32*, i16*, i8, [256 x i8], [256 x i8], i8, [6 x i8] }>
%"class.std::locale::facet.base" = type <{ i32 (...)**, i32 }>
%struct.__locale_struct = type { [13 x %struct.__locale_data*], i16*, i32*, i32*, [13 x i8*] }
%struct.__locale_data = type opaque
%"class.std::num_put" = type { %"class.std::locale::facet.base", [4 x i8] }
%"class.std::num_get" = type { %"class.std::locale::facet.base", [4 x i8] }

@_ZStL8__ioinit = internal global %"class.std::ios_base::Init" zeroinitializer, align 1
@__dso_handle = external hidden global i8
@_ZSt3cin = external global %"class.std::basic_istream", align 8
@_ZSt4cout = external global %"class.std::basic_ostream", align 8
@llvm.global_ctors = appending global [1 x { i32, void ()*, i8* }] [{ i32, void ()*, i8* } { i32 65535, void ()* @_GLOBAL__sub_I_400.cpp, i8* null }]

declare void @_ZNSt8ios_base4InitC1Ev(%"class.std::ios_base::Init"* nonnull align 1 dereferenceable(1)) unnamed_addr #0

; Function Attrs: nounwind
declare void @_ZNSt8ios_base4InitD1Ev(%"class.std::ios_base::Init"* nonnull align 1 dereferenceable(1)) unnamed_addr #1

; Function Attrs: nofree nounwind
declare i32 @__cxa_atexit(void (i8*)*, i8*, i8*) local_unnamed_addr #2

; Function Attrs: mustprogress nofree nounwind sspstrong uwtable
define dso_local i32 @_Z6factorii(i32 %0, i32 %1) local_unnamed_addr #3 {
  %3 = icmp sgt i32 %0, 2
  br i1 %3, label %4, label %11

4:                                                ; preds = %2, %8
  %5 = phi i32 [ %9, %8 ], [ 2, %2 ]
  %6 = srem i32 %0, %5
  %7 = icmp eq i32 %6, 0
  br i1 %7, label %11, label %8

8:                                                ; preds = %4
  %9 = add nuw nsw i32 %5, 1
  %10 = icmp eq i32 %9, %0
  br i1 %10, label %59, label %4, !llvm.loop !5

11:                                               ; preds = %4, %2
  %12 = phi i32 [ 2, %2 ], [ %5, %4 ]
  %13 = icmp eq i32 %12, %0
  br i1 %13, label %59, label %14

14:                                               ; preds = %11
  %15 = icmp eq i32 %0, %1
  br i1 %15, label %16, label %35

16:                                               ; preds = %14
  %17 = sitofp i32 %0 to double
  %18 = tail call double @sqrt(double %17) #10
  %19 = fcmp ult double %18, 2.000000e+00
  br i1 %19, label %56, label %20

20:                                               ; preds = %16, %29
  %21 = phi i32 [ %31, %29 ], [ 2, %16 ]
  %22 = phi i32 [ %30, %29 ], [ 0, %16 ]
  %23 = srem i32 %0, %21
  %24 = sdiv i32 %0, %21
  %25 = icmp eq i32 %23, 0
  br i1 %25, label %26, label %29

26:                                               ; preds = %20
  %27 = tail call i32 @_Z6factorii(i32 %24, i32 %0)
  %28 = add nsw i32 %27, %22
  br label %29

29:                                               ; preds = %20, %26
  %30 = phi i32 [ %28, %26 ], [ %22, %20 ]
  %31 = add nuw nsw i32 %21, 1
  %32 = sitofp i32 %31 to double
  %33 = tail call double @sqrt(double %17) #10
  %34 = fcmp ult double %33, %32
  br i1 %34, label %56, label %20, !llvm.loop !7

35:                                               ; preds = %14
  %36 = sdiv i32 %1, %0
  %37 = sitofp i32 %0 to double
  %38 = sitofp i32 %36 to double
  %39 = tail call double @sqrt(double %37) #10
  %40 = fcmp ult double %39, %38
  br i1 %40, label %56, label %41

41:                                               ; preds = %35, %50
  %42 = phi i32 [ %51, %50 ], [ 0, %35 ]
  %43 = phi i32 [ %52, %50 ], [ %36, %35 ]
  %44 = srem i32 %0, %43
  %45 = sdiv i32 %0, %43
  %46 = icmp eq i32 %44, 0
  br i1 %46, label %47, label %50

47:                                               ; preds = %41
  %48 = tail call i32 @_Z6factorii(i32 %45, i32 %0)
  %49 = add nsw i32 %48, %42
  br label %50

50:                                               ; preds = %41, %47
  %51 = phi i32 [ %49, %47 ], [ %42, %41 ]
  %52 = add nsw i32 %43, 1
  %53 = sitofp i32 %52 to double
  %54 = tail call double @sqrt(double %37) #10
  %55 = fcmp ult double %54, %53
  br i1 %55, label %56, label %41, !llvm.loop !8

56:                                               ; preds = %50, %29, %35, %16
  %57 = phi i32 [ 0, %16 ], [ 0, %35 ], [ %30, %29 ], [ %51, %50 ]
  %58 = add nsw i32 %57, 1
  br label %59

59:                                               ; preds = %8, %11, %56
  %60 = phi i32 [ %58, %56 ], [ 1, %11 ], [ 1, %8 ]
  ret i32 %60
}

; Function Attrs: argmemonly mustprogress nofree nosync nounwind willreturn
declare void @llvm.lifetime.start.p0i8(i64 immarg, i8* nocapture) #4

; Function Attrs: argmemonly mustprogress nofree nosync nounwind willreturn
declare void @llvm.lifetime.end.p0i8(i64 immarg, i8* nocapture) #4

; Function Attrs: mustprogress norecurse sspstrong uwtable
define dso_local i32 @main() local_unnamed_addr #5 {
  %1 = alloca i32, align 4
  %2 = bitcast i32* %1 to i8*
  call void @llvm.lifetime.start.p0i8(i64 4, i8* nonnull %2) #10
  %3 = call nonnull align 8 dereferenceable(16) %"class.std::basic_istream"* @_ZNSirsERi(%"class.std::basic_istream"* nonnull align 8 dereferenceable(16) @_ZSt3cin, i32* nonnull align 4 dereferenceable(4) %1)
  %4 = load i32, i32* %1, align 4, !tbaa !9
  %5 = zext i32 %4 to i64
  %6 = call i8* @llvm.stacksave()
  %7 = alloca i32, i64 %5, align 16
  %8 = load i32, i32* %1, align 4, !tbaa !9
  %9 = icmp sgt i32 %8, 0
  br i1 %9, label %12, label %59

10:                                               ; preds = %12
  %11 = icmp sgt i32 %17, 0
  br i1 %11, label %20, label %59

12:                                               ; preds = %0, %12
  %13 = phi i64 [ %16, %12 ], [ 0, %0 ]
  %14 = getelementptr inbounds i32, i32* %7, i64 %13
  %15 = call nonnull align 8 dereferenceable(16) %"class.std::basic_istream"* @_ZNSirsERi(%"class.std::basic_istream"* nonnull align 8 dereferenceable(16) @_ZSt3cin, i32* nonnull align 4 dereferenceable(4) %14)
  %16 = add nuw nsw i64 %13, 1
  %17 = load i32, i32* %1, align 4, !tbaa !9
  %18 = sext i32 %17 to i64
  %19 = icmp slt i64 %16, %18
  br i1 %19, label %12, label %10, !llvm.loop !13

20:                                               ; preds = %10, %51
  %21 = phi i64 [ %55, %51 ], [ 0, %10 ]
  %22 = getelementptr inbounds i32, i32* %7, i64 %21
  %23 = load i32, i32* %22, align 4, !tbaa !9
  %24 = call i32 @_Z6factorii(i32 %23, i32 %23)
  %25 = call nonnull align 8 dereferenceable(8) %"class.std::basic_ostream"* @_ZNSolsEi(%"class.std::basic_ostream"* nonnull align 8 dereferenceable(8) @_ZSt4cout, i32 %24)
  %26 = bitcast %"class.std::basic_ostream"* %25 to i8**
  %27 = load i8*, i8** %26, align 8, !tbaa !14
  %28 = getelementptr i8, i8* %27, i64 -24
  %29 = bitcast i8* %28 to i64*
  %30 = load i64, i64* %29, align 8
  %31 = bitcast %"class.std::basic_ostream"* %25 to i8*
  %32 = add nsw i64 %30, 240
  %33 = getelementptr inbounds i8, i8* %31, i64 %32
  %34 = bitcast i8* %33 to %"class.std::ctype"**
  %35 = load %"class.std::ctype"*, %"class.std::ctype"** %34, align 8, !tbaa !16
  %36 = icmp eq %"class.std::ctype"* %35, null
  br i1 %36, label %37, label %38

37:                                               ; preds = %20
  call void @_ZSt16__throw_bad_castv() #11
  unreachable

38:                                               ; preds = %20
  %39 = getelementptr inbounds %"class.std::ctype", %"class.std::ctype"* %35, i64 0, i32 8
  %40 = load i8, i8* %39, align 8, !tbaa !20
  %41 = icmp eq i8 %40, 0
  br i1 %41, label %45, label %42

42:                                               ; preds = %38
  %43 = getelementptr inbounds %"class.std::ctype", %"class.std::ctype"* %35, i64 0, i32 9, i64 10
  %44 = load i8, i8* %43, align 1, !tbaa !22
  br label %51

45:                                               ; preds = %38
  call void @_ZNKSt5ctypeIcE13_M_widen_initEv(%"class.std::ctype"* nonnull align 8 dereferenceable(570) %35)
  %46 = bitcast %"class.std::ctype"* %35 to i8 (%"class.std::ctype"*, i8)***
  %47 = load i8 (%"class.std::ctype"*, i8)**, i8 (%"class.std::ctype"*, i8)*** %46, align 8, !tbaa !14
  %48 = getelementptr inbounds i8 (%"class.std::ctype"*, i8)*, i8 (%"class.std::ctype"*, i8)** %47, i64 6
  %49 = load i8 (%"class.std::ctype"*, i8)*, i8 (%"class.std::ctype"*, i8)** %48, align 8
  %50 = call signext i8 %49(%"class.std::ctype"* nonnull align 8 dereferenceable(570) %35, i8 signext 10)
  br label %51

51:                                               ; preds = %42, %45
  %52 = phi i8 [ %44, %42 ], [ %50, %45 ]
  %53 = call nonnull align 8 dereferenceable(8) %"class.std::basic_ostream"* @_ZNSo3putEc(%"class.std::basic_ostream"* nonnull align 8 dereferenceable(8) %25, i8 signext %52)
  %54 = call nonnull align 8 dereferenceable(8) %"class.std::basic_ostream"* @_ZNSo5flushEv(%"class.std::basic_ostream"* nonnull align 8 dereferenceable(8) %53)
  %55 = add nuw nsw i64 %21, 1
  %56 = load i32, i32* %1, align 4, !tbaa !9
  %57 = sext i32 %56 to i64
  %58 = icmp slt i64 %55, %57
  br i1 %58, label %20, label %59, !llvm.loop !23

59:                                               ; preds = %51, %0, %10
  call void @llvm.stackrestore(i8* %6)
  call void @llvm.lifetime.end.p0i8(i64 4, i8* nonnull %2) #10
  ret i32 0
}

declare nonnull align 8 dereferenceable(16) %"class.std::basic_istream"* @_ZNSirsERi(%"class.std::basic_istream"* nonnull align 8 dereferenceable(16), i32* nonnull align 4 dereferenceable(4)) local_unnamed_addr #0

; Function Attrs: mustprogress nofree nosync nounwind willreturn
declare i8* @llvm.stacksave() #6

declare nonnull align 8 dereferenceable(8) %"class.std::basic_ostream"* @_ZNSolsEi(%"class.std::basic_ostream"* nonnull align 8 dereferenceable(8), i32) local_unnamed_addr #0

; Function Attrs: mustprogress nofree nosync nounwind willreturn
declare void @llvm.stackrestore(i8*) #6

; Function Attrs: mustprogress nofree nounwind willreturn
declare double @sqrt(double) local_unnamed_addr #7

declare nonnull align 8 dereferenceable(8) %"class.std::basic_ostream"* @_ZNSo3putEc(%"class.std::basic_ostream"* nonnull align 8 dereferenceable(8), i8 signext) local_unnamed_addr #0

declare nonnull align 8 dereferenceable(8) %"class.std::basic_ostream"* @_ZNSo5flushEv(%"class.std::basic_ostream"* nonnull align 8 dereferenceable(8)) local_unnamed_addr #0

; Function Attrs: noreturn
declare void @_ZSt16__throw_bad_castv() local_unnamed_addr #8

declare void @_ZNKSt5ctypeIcE13_M_widen_initEv(%"class.std::ctype"* nonnull align 8 dereferenceable(570)) local_unnamed_addr #0

; Function Attrs: sspstrong uwtable
define internal void @_GLOBAL__sub_I_400.cpp() #9 section ".text.startup" {
  tail call void @_ZNSt8ios_base4InitC1Ev(%"class.std::ios_base::Init"* nonnull align 1 dereferenceable(1) @_ZStL8__ioinit)
  %1 = tail call i32 @__cxa_atexit(void (i8*)* bitcast (void (%"class.std::ios_base::Init"*)* @_ZNSt8ios_base4InitD1Ev to void (i8*)*), i8* getelementptr inbounds (%"class.std::ios_base::Init", %"class.std::ios_base::Init"* @_ZStL8__ioinit, i64 0, i32 0), i8* nonnull @__dso_handle) #10
  ret void
}


!llvm.module.flags = !{!0, !1, !2, !3}
!llvm.ident = !{!4}

!0 = !{i32 1, !"wchar_size", i32 4}
!1 = !{i32 7, !"PIC Level", i32 2}
!2 = !{i32 7, !"PIE Level", i32 2}
!3 = !{i32 7, !"uwtable", i32 1}
!4 = !{!"clang version 13.0.0"}
!5 = distinct !{!5, !6}
!6 = !{!"llvm.loop.mustprogress"}
!7 = distinct !{!7, !6}
!8 = distinct !{!8, !6}
!9 = !{!10, !10, i64 0}
!10 = !{!"int", !11, i64 0}
!11 = !{!"omnipotent char", !12, i64 0}
!12 = !{!"Simple C++ TBAA"}
!13 = distinct !{!13, !6}
!14 = !{!15, !15, i64 0}
!15 = !{!"vtable pointer", !12, i64 0}
!16 = !{!17, !18, i64 240}
!17 = !{!"_ZTSSt9basic_iosIcSt11char_traitsIcEE", !18, i64 216, !11, i64 224, !19, i64 225, !18, i64 232, !18, i64 240, !18, i64 248, !18, i64 256}
!18 = !{!"any pointer", !11, i64 0}
!19 = !{!"bool", !11, i64 0}
!20 = !{!21, !11, i64 56}
!21 = !{!"_ZTSSt5ctypeIcE", !18, i64 16, !19, i64 24, !18, i64 32, !18, i64 40, !18, i64 48, !11, i64 56, !11, i64 57, !11, i64 313, !11, i64 569}
!22 = !{!11, !11, i64 0}
!23 = distinct !{!23, !6}
